; Function Attrs: mustprogress uwtable
define internal fastcc void @_ZL11replace_allRNSt7__cxx1112basic_stringIcSt11char_traitsIcESaIcEEERKS4_S7_(ptr noundef nonnull align 8 dereferenceable(32) %s, ptr noundef nonnull align 8 dereferenceable(32) %search, ptr noundef nonnull align 8 dereferenceable(32) %replace) unnamed_addr #2 personality ptr @__gxx_personality_v0 {
entry:
  %result = alloca %"class.std::__cxx11::basic_string", align 8
  %ref.tmp = alloca %"class.std::__cxx11::basic_string", align 8
  %ref.tmp5 = alloca %"class.std::__cxx11::basic_string", align 8
  %ref.tmp6 = alloca %"class.std::__cxx11::basic_string", align 8
  call void @_ZNSt7__cxx1112basic_stringIcSt11char_traitsIcESaIcEEC1Ev(ptr noundef nonnull align 8 dereferenceable(32) %result) #44
  %call22 = call noundef i64 @_ZNKSt7__cxx1112basic_stringIcSt11char_traitsIcESaIcEE4findERKS4_m(ptr noundef nonnull align 8 dereferenceable(32) %s, ptr noundef nonnull align 8 dereferenceable(32) %search, i64 noundef 0) #44
  %cmp23 = icmp eq i64 %call22, -1
  br i1 %cmp23, label %if.then, label %if.end

if.then:                                          ; preds = %invoke.cont12, %entry
  %pos.0.lcssa = phi i64 [ 0, %entry ], [ %add, %invoke.cont12 ]
  %call1 = call noundef i64 @_ZNKSt7__cxx1112basic_stringIcSt11char_traitsIcESaIcEE4sizeEv(ptr noundef nonnull align 8 dereferenceable(32) %s) #44
  %sub = sub i64 %call1, %pos.0.lcssa
  invoke void @_ZNKSt7__cxx1112basic_stringIcSt11char_traitsIcESaIcEE6substrEmm(ptr nonnull sret(%"class.std::__cxx11::basic_string") align 8 %ref.tmp, ptr noundef nonnull align 8 dereferenceable(32) %s, i64 noundef %pos.0.lcssa, i64 noundef %sub)
          to label %invoke.cont unwind label %lpad.loopexit.split-lp

invoke.cont:                                      ; preds = %if.then
  %call4 = invoke noundef nonnull align 8 dereferenceable(32) ptr @_ZNSt7__cxx1112basic_stringIcSt11char_traitsIcESaIcEEpLERKS4_(ptr noundef nonnull align 8 dereferenceable(32) %result, ptr noundef nonnull align 8 dereferenceable(32) %ref.tmp)
          to label %invoke.cont3 unwind label %lpad2

invoke.cont3:                                     ; preds = %invoke.cont
  call void @_ZNSt7__cxx1112basic_stringIcSt11char_traitsIcESaIcEED1Ev(ptr noundef nonnull align 8 dereferenceable(32) %ref.tmp) #44
  %call15 = call noundef nonnull align 8 dereferenceable(32) ptr @_ZNSt7__cxx1112basic_stringIcSt11char_traitsIcESaIcEEaSEOS4_(ptr noundef nonnull align 8 dereferenceable(32) %s, ptr noundef nonnull align 8 dereferenceable(32) %result) #44
  call void @_ZNSt7__cxx1112basic_stringIcSt11char_traitsIcESaIcEED1Ev(ptr noundef nonnull align 8 dereferenceable(32) %result) #44
  ret void

lpad.loopexit:                                    ; preds = %if.end
  %lpad.loopexit17 = landingpad { ptr, i32 }
          cleanup
  br label %ehcleanup16

lpad.loopexit.split-lp:                           ; preds = %if.then
  %lpad.loopexit.split-lp18 = landingpad { ptr, i32 }
          cleanup
  br label %ehcleanup16

lpad2:                                            ; preds = %invoke.cont
  %0 = landingpad { ptr, i32 }
          cleanup
  call void @_ZNSt7__cxx1112basic_stringIcSt11char_traitsIcESaIcEED1Ev(ptr noundef nonnull align 8 dereferenceable(32) %ref.tmp) #44
  br label %ehcleanup16

if.end:                                           ; preds = %entry, %invoke.cont12
  %call25 = phi i64 [ %call, %invoke.cont12 ], [ %call22, %entry ]
  %pos.024 = phi i64 [ %add, %invoke.cont12 ], [ 0, %entry ]
  %sub7 = sub i64 %call25, %pos.024
  invoke void @_ZNKSt7__cxx1112basic_stringIcSt11char_traitsIcESaIcEE6substrEmm(ptr nonnull sret(%"class.std::__cxx11::basic_string") align 8 %ref.tmp6, ptr noundef nonnull align 8 dereferenceable(32) %s, i64 noundef %pos.024, i64 noundef %sub7)
          to label %invoke.cont8 unwind label %lpad.loopexit

invoke.cont8:                                     ; preds = %if.end
  %call.i16 = invoke noundef nonnull align 8 dereferenceable(32) ptr @_ZNSt7__cxx1112basic_stringIcSt11char_traitsIcESaIcEE6appendERKS4_(ptr noundef nonnull align 8 dereferenceable(32) %ref.tmp6, ptr noundef nonnull align 8 dereferenceable(32) %replace)
          to label %invoke.cont10 unwind label %lpad9

invoke.cont10:                                    ; preds = %invoke.cont8
  call void @_ZNSt7__cxx1112basic_stringIcSt11char_traitsIcESaIcEEC1EOS4_(ptr noundef nonnull align 8 dereferenceable(32) %ref.tmp5, ptr noundef nonnull align 8 dereferenceable(32) %call.i16) #44
  %call13 = invoke noundef nonnull align 8 dereferenceable(32) ptr @_ZNSt7__cxx1112basic_stringIcSt11char_traitsIcESaIcEEpLERKS4_(ptr noundef nonnull align 8 dereferenceable(32) %result, ptr noundef nonnull align 8 dereferenceable(32) %ref.tmp5)
          to label %invoke.cont12 unwind label %lpad11

invoke.cont12:                                    ; preds = %invoke.cont10
  call void @_ZNSt7__cxx1112basic_stringIcSt11char_traitsIcESaIcEED1Ev(ptr noundef nonnull align 8 dereferenceable(32) %ref.tmp5) #44
  call void @_ZNSt7__cxx1112basic_stringIcSt11char_traitsIcESaIcEED1Ev(ptr noundef nonnull align 8 dereferenceable(32) %ref.tmp6) #44
  %call14 = call noundef i64 @_ZNKSt7__cxx1112basic_stringIcSt11char_traitsIcESaIcEE6lengthEv(ptr noundef nonnull align 8 dereferenceable(32) %search) #44
  %add = add i64 %call14, %call25
  %call = call noundef i64 @_ZNKSt7__cxx1112basic_stringIcSt11char_traitsIcESaIcEE4findERKS4_m(ptr noundef nonnull align 8 dereferenceable(32) %s, ptr noundef nonnull align 8 dereferenceable(32) %search, i64 noundef %add) #44
  %cmp = icmp eq i64 %call, -1
  br i1 %cmp, label %if.then, label %if.end, !llvm.loop !302

lpad9:                                            ; preds = %invoke.cont8
  %1 = landingpad { ptr, i32 }
          cleanup
  br label %ehcleanup

lpad11:                                           ; preds = %invoke.cont10
  %2 = landingpad { ptr, i32 }
          cleanup
  call void @_ZNSt7__cxx1112basic_stringIcSt11char_traitsIcESaIcEED1Ev(ptr noundef nonnull align 8 dereferenceable(32) %ref.tmp5) #44
  br label %ehcleanup

ehcleanup:                                        ; preds = %lpad11, %lpad9
  %.pn = phi { ptr, i32 } [ %2, %lpad11 ], [ %1, %lpad9 ]
  call void @_ZNSt7__cxx1112basic_stringIcSt11char_traitsIcESaIcEED1Ev(ptr noundef nonnull align 8 dereferenceable(32) %ref.tmp6) #44
  br label %ehcleanup16

ehcleanup16:                                      ; preds = %lpad.loopexit, %lpad.loopexit.split-lp, %ehcleanup, %lpad2
  %.pn14 = phi { ptr, i32 } [ %0, %lpad2 ], [ %.pn, %ehcleanup ], [ %lpad.loopexit17, %lpad.loopexit ], [ %lpad.loopexit.split-lp18, %lpad.loopexit.split-lp ]
  call void @_ZNSt7__cxx1112basic_stringIcSt11char_traitsIcESaIcEED1Ev(ptr noundef nonnull align 8 dereferenceable(32) %result) #44
  resume { ptr, i32 } %.pn14
}